target datalayout = "e-m:e-p270:32:32-p271:32:32-p272:64:64-i64:64-i128:128-f80:128-n8:16:32:64-S128"
target triple = "x86_64-pc-linux-gnu"

%struct._ir_array = type { ptr, i32 }
%struct._ir_list = type { %struct._ir_array, i32 }

; Function Attrs: nounwind uwtable
define hidden void @ir_array_grow(ptr noundef %0, i32 noundef %1) #0 {
  %3 = alloca ptr, align 8
  %4 = alloca i32, align 4
  store ptr %0, ptr %3, align 8
  store i32 %1, ptr %4, align 4
  %5 = load ptr, ptr %3, align 8
  %6 = getelementptr inbounds %struct._ir_array, ptr %5, i32 0, i32 0
  %7 = load ptr, ptr %6, align 8
  %8 = load i32, ptr %4, align 4
  %9 = zext i32 %8 to i64
  %10 = mul i64 %9, 4
  %11 = call ptr @_erealloc(ptr noundef %7, i64 noundef %10) #14
  %12 = load ptr, ptr %3, align 8
  %13 = getelementptr inbounds %struct._ir_array, ptr %12, i32 0, i32 0
  store ptr %11, ptr %13, align 8
  %14 = load i32, ptr %4, align 4
  %15 = load ptr, ptr %3, align 8
  %16 = getelementptr inbounds %struct._ir_array, ptr %15, i32 0, i32 1
  store i32 %14, ptr %16, align 8
  ret void
}

; Function Attrs: nounwind uwtable
define hidden void @ir_list_insert(ptr noundef %0, i32 noundef %1, i32 noundef %2) #0 {
  %4 = alloca ptr, align 8
  %5 = alloca i32, align 4
  %6 = alloca i32, align 4
  store ptr %0, ptr %4, align 8
  store i32 %1, ptr %5, align 4
  store i32 %2, ptr %6, align 4
  %7 = load ptr, ptr %4, align 8
  %8 = getelementptr inbounds %struct._ir_list, ptr %7, i32 0, i32 1
  %9 = load i32, ptr %8, align 8
  %10 = load ptr, ptr %4, align 8
  %11 = getelementptr inbounds %struct._ir_list, ptr %10, i32 0, i32 0
  %12 = getelementptr inbounds %struct._ir_array, ptr %11, i32 0, i32 1
  %13 = load i32, ptr %12, align 8
  %14 = icmp uge i32 %9, %13
  br i1 %14, label %15, label %23

15:                                               ; preds = %3
  %16 = load ptr, ptr %4, align 8
  %17 = getelementptr inbounds %struct._ir_list, ptr %16, i32 0, i32 0
  %18 = load ptr, ptr %4, align 8
  %19 = getelementptr inbounds %struct._ir_list, ptr %18, i32 0, i32 0
  %20 = getelementptr inbounds %struct._ir_array, ptr %19, i32 0, i32 1
  %21 = load i32, ptr %20, align 8
  %22 = add i32 %21, 1
  call void @ir_array_grow(ptr noundef %17, i32 noundef %22)
  br label %23

23:                                               ; preds = %15, %3
  %24 = load ptr, ptr %4, align 8
  %25 = getelementptr inbounds %struct._ir_list, ptr %24, i32 0, i32 0
  %26 = getelementptr inbounds %struct._ir_array, ptr %25, i32 0, i32 0
  %27 = load ptr, ptr %26, align 8
  %28 = load i32, ptr %5, align 4
  %29 = zext i32 %28 to i64
  %30 = getelementptr inbounds i32, ptr %27, i64 %29
  %31 = getelementptr inbounds i32, ptr %30, i64 1
  %32 = load ptr, ptr %4, align 8
  %33 = getelementptr inbounds %struct._ir_list, ptr %32, i32 0, i32 0
  %34 = getelementptr inbounds %struct._ir_array, ptr %33, i32 0, i32 0
  %35 = load ptr, ptr %34, align 8
  %36 = load i32, ptr %5, align 4
  %37 = zext i32 %36 to i64
  %38 = getelementptr inbounds i32, ptr %35, i64 %37
  %39 = load ptr, ptr %4, align 8
  %40 = getelementptr inbounds %struct._ir_list, ptr %39, i32 0, i32 1
  %41 = load i32, ptr %40, align 8
  %42 = load i32, ptr %5, align 4
  %43 = sub i32 %41, %42
  %44 = zext i32 %43 to i64
  %45 = mul i64 %44, 4
  call void @llvm.memmove.p0.p0.i64(ptr align 4 %31, ptr align 4 %38, i64 %45, i1 false)
  %46 = load i32, ptr %6, align 4
  %47 = load ptr, ptr %4, align 8
  %48 = getelementptr inbounds %struct._ir_list, ptr %47, i32 0, i32 0
  %49 = getelementptr inbounds %struct._ir_array, ptr %48, i32 0, i32 0
  %50 = load ptr, ptr %49, align 8
  %51 = load i32, ptr %5, align 4
  %52 = zext i32 %51 to i64
  %53 = getelementptr inbounds i32, ptr %50, i64 %52
  store i32 %46, ptr %53, align 4
  %54 = load ptr, ptr %4, align 8
  %55 = getelementptr inbounds %struct._ir_list, ptr %54, i32 0, i32 1
  %56 = load i32, ptr %55, align 8
  %57 = add i32 %56, 1
  store i32 %57, ptr %55, align 8
  ret void
}