; Function Attrs: nounwind uwtable
define hidden void @ir_list_insert(ptr nocapture noundef %0, i32 noundef %1, i32 noundef %2) local_unnamed_addr #0 {
  %4 = getelementptr inbounds i8, ptr %0, i64 16
  %5 = load i32, ptr %4, align 8
  %6 = getelementptr inbounds i8, ptr %0, i64 8
  %7 = load i32, ptr %6, align 8
  %.not = icmp ult i32 %5, %7
  %.pre = load ptr, ptr %0, align 8
  br i1 %.not, label %13, label %8

8:                                                ; preds = %3
  %9 = add i32 %7, 1
  %10 = zext i32 %9 to i64
  %11 = shl nuw nsw i64 %10, 2
  %12 = tail call ptr @_erealloc(ptr noundef %.pre, i64 noundef %11) #24
  store ptr %12, ptr %0, align 8
  store i32 %9, ptr %6, align 8
  %.pre13 = load i32, ptr %4, align 8
  br label %13

13:                                               ; preds = %8, %3
  %14 = phi i32 [ %.pre13, %8 ], [ %5, %3 ]
  %15 = phi ptr [ %12, %8 ], [ %.pre, %3 ]
  %16 = zext i32 %1 to i64
  %17 = getelementptr inbounds i32, ptr %15, i64 %16
  %18 = getelementptr inbounds i8, ptr %17, i64 4
  %19 = sub i32 %14, %1
  %20 = zext i32 %19 to i64
  %21 = shl nuw nsw i64 %20, 2
  tail call void @llvm.memmove.p0.p0.i64(ptr nonnull align 4 %18, ptr align 4 %17, i64 %21, i1 false)
  %22 = load ptr, ptr %0, align 8
  %23 = getelementptr inbounds i32, ptr %22, i64 %16
  store i32 %2, ptr %23, align 4
  %24 = load i32, ptr %4, align 8
  %25 = add i32 %24, 1
  store i32 %25, ptr %4, align 8
  ret void
}